target datalayout = "e-m:e-p270:32:32-p271:32:32-p272:64:64-i64:64-i128:128-f80:128-n8:16:32:64-S128"
target triple = "x86_64-unknown-linux-gnu"

%"class.QuantLib::Date" = type { i64 }
%"class.QuantLib::Period" = type { i32, i32 }

; Function Attrs: mustprogress nounwind uwtable
define linkonce_odr noundef i32 @_ZNK8QuantLib6Period5unitsEv(ptr noundef nonnull align 4 dereferenceable(8) %this) #4 comdat align 2 {
entry:
  %this.addr = alloca ptr, align 8
  store ptr %this, ptr %this.addr, align 8, !tbaa !3
  %this1 = load ptr, ptr %this.addr, align 8
  %units_ = getelementptr inbounds nuw %"class.QuantLib::Period", ptr %this1, i32 0, i32 1
  %0 = load i32, ptr %units_, align 4, !tbaa !41
  ret i32 %0
}

; Function Attrs: mustprogress nounwind uwtable
define linkonce_odr noundef i32 @_ZNK8QuantLib6Period6lengthEv(ptr noundef nonnull align 4 dereferenceable(8) %this) #4 comdat align 2 {
entry:
  %this.addr = alloca ptr, align 8
  store ptr %this, ptr %this.addr, align 8, !tbaa !3
  %this1 = load ptr, ptr %this.addr, align 8
  %length_ = getelementptr inbounds nuw %"class.QuantLib::Period", ptr %this1, i32 0, i32 0
  %0 = load i32, ptr %length_, align 4, !tbaa !30
  ret i32 %0
}

; Function Attrs: inlinehint mustprogress uwtable
define linkonce_odr i64 @_ZNK8QuantLib4DateplERKNS_6PeriodE(ptr noundef nonnull align 8 dereferenceable(8) %this, ptr noundef nonnull align 4 dereferenceable(8) %p) #7 comdat align 2 {
entry:
  %retval = alloca %"class.QuantLib::Date", align 8
  %this.addr = alloca ptr, align 8
  %p.addr = alloca ptr, align 8
  store ptr %this, ptr %this.addr, align 8, !tbaa !3
  store ptr %p, ptr %p.addr, align 8, !tbaa !3
  %this1 = load ptr, ptr %this.addr, align 8
  %0 = load ptr, ptr %p.addr, align 8, !tbaa !3
  %call = call noundef i32 @_ZNK8QuantLib6Period6lengthEv(ptr noundef nonnull align 4 dereferenceable(8) %0)
  %1 = load ptr, ptr %p.addr, align 8, !tbaa !3
  %call2 = call noundef i32 @_ZNK8QuantLib6Period5unitsEv(ptr noundef nonnull align 4 dereferenceable(8) %1)
  %call3 = call i64 @_ZN8QuantLib4Date7advanceERKS0_iNS_8TimeUnitE(ptr noundef nonnull align 8 dereferenceable(8) %this1, i32 noundef %call, i32 noundef %call2)
  %coerce.dive = getelementptr inbounds nuw %"class.QuantLib::Date", ptr %retval, i32 0, i32 0
  store i64 %call3, ptr %coerce.dive, align 8
  %coerce.dive4 = getelementptr inbounds nuw %"class.QuantLib::Date", ptr %retval, i32 0, i32 0
  %2 = load i64, ptr %coerce.dive4, align 8
  ret i64 %2
}

; Function Attrs: mustprogress uwtable
define noundef double @_ZNK8QuantLib31CallableBondVolatilityStructure13maxBondLengthEv(ptr noundef nonnull align 8 dereferenceable(68) %this) unnamed_addr #6 align 2 {
entry:
  %this.addr = alloca ptr, align 8
  %ref.tmp = alloca %"class.QuantLib::Date", align 8
  store ptr %this, ptr %this.addr, align 8, !tbaa !3
  %this1 = load ptr, ptr %this.addr, align 8
  call void @llvm.lifetime.start.p0(i64 8, ptr %ref.tmp) #16
  %vtable = load ptr, ptr %this1, align 8, !tbaa !7
  %vfn = getelementptr inbounds ptr, ptr %vtable, i64 5
  %0 = load ptr, ptr %vfn, align 8
  %call = call noundef nonnull align 8 dereferenceable(8) ptr %0(ptr noundef nonnull align 8 dereferenceable(64) %this1)
  %vtable2 = load ptr, ptr %this1, align 8, !tbaa !7
  %vfn3 = getelementptr inbounds ptr, ptr %vtable2, i64 10
  %1 = load ptr, ptr %vfn3, align 8
  %call4 = call noundef nonnull align 4 dereferenceable(8) ptr %1(ptr noundef nonnull align 8 dereferenceable(68) %this1)
  %call5 = call i64 @_ZNK8QuantLib4DateplERKNS_6PeriodE(ptr noundef nonnull align 8 dereferenceable(8) %call, ptr noundef nonnull align 4 dereferenceable(8) %call4)
  %coerce.dive = getelementptr inbounds nuw %"class.QuantLib::Date", ptr %ref.tmp, i32 0, i32 0
  store i64 %call5, ptr %coerce.dive, align 8
  %call6 = call noundef double @_ZNK8QuantLib13TermStructure17timeFromReferenceERKNS_4DateE(ptr noundef nonnull align 8 dereferenceable(64) %this1, ptr noundef nonnull align 8 dereferenceable(8) %ref.tmp)
  call void @llvm.lifetime.end.p0(i64 8, ptr %ref.tmp) #16
  ret double %call6
}