; Function Attrs: mustprogress uwtable
define noundef double @_ZNK8QuantLib31CallableBondVolatilityStructure13maxBondLengthEv(ptr noundef nonnull align 8 dereferenceable(68) %this) unnamed_addr #5 align 2 {
entry:
  %ref.tmp = alloca %"class.QuantLib::Date", align 8
  call void @llvm.lifetime.start.p0(i64 8, ptr nonnull %ref.tmp) #18
  %vtable = load ptr, ptr %this, align 8, !tbaa !18
  %vfn = getelementptr inbounds i8, ptr %vtable, i64 40
  %0 = load ptr, ptr %vfn, align 8
  %call = tail call noundef nonnull align 8 dereferenceable(8) ptr %0(ptr noundef nonnull align 8 dereferenceable(64) %this)
  %vtable2 = load ptr, ptr %this, align 8, !tbaa !18
  %vfn3 = getelementptr inbounds i8, ptr %vtable2, i64 80
  %1 = load ptr, ptr %vfn3, align 8
  %call4 = tail call noundef nonnull align 4 dereferenceable(8) ptr %1(ptr noundef nonnull align 8 dereferenceable(68) %this)
  %2 = load i32, ptr %call4, align 4, !tbaa !32
  %units_.i.i = getelementptr inbounds nuw i8, ptr %call4, i64 4
  %3 = load i32, ptr %units_.i.i, align 4, !tbaa !35
  %call3.i = tail call i64 @_ZN8QuantLib4Date7advanceERKS0_iNS_8TimeUnitE(ptr noundef nonnull align 8 dereferenceable(8) %call, i32 noundef %2, i32 noundef %3)
  store i64 %call3.i, ptr %ref.tmp, align 8
  %call6 = call noundef double @_ZNK8QuantLib13TermStructure17timeFromReferenceERKNS_4DateE(ptr noundef nonnull align 8 dereferenceable(64) %this, ptr noundef nonnull align 8 dereferenceable(8) %ref.tmp)
  call void @llvm.lifetime.end.p0(i64 8, ptr nonnull %ref.tmp) #18
  ret double %call6
}